; Function Attrs: mustprogress uwtable
define void @_ZN5arrow2io8internal14ReadRangeCache5CacheESt6vectorINS0_9ReadRangeESaIS4_EE(ptr dead_on_unwind noalias writable sret(%"class.arrow::Status") align 8 %0, ptr noundef nonnull readonly align 8 captures(none) dereferenceable(8) %1, ptr noundef captures(none) %2) local_unnamed_addr #3 align 2 personality ptr @__gxx_personality_v0 {
  %4 = alloca %"class.std::vector.5", align 8
  %5 = load ptr, ptr %1, align 8, !tbaa !16
  %6 = load ptr, ptr %2, align 8, !tbaa !53
  store ptr %6, ptr %4, align 8, !tbaa !53
  %7 = getelementptr inbounds nuw i8, ptr %4, i64 8
  %8 = getelementptr inbounds nuw i8, ptr %2, i64 8
  %9 = load ptr, ptr %8, align 8, !tbaa !56
  store ptr %9, ptr %7, align 8, !tbaa !56
  %10 = getelementptr inbounds nuw i8, ptr %4, i64 16
  %11 = getelementptr inbounds nuw i8, ptr %2, i64 16
  %12 = load ptr, ptr %11, align 8, !tbaa !57
  store ptr %12, ptr %10, align 8, !tbaa !57
  tail call void @llvm.memset.p0.i64(ptr noundef nonnull align 8 dereferenceable(24) %2, i8 0, i64 24, i1 false)
  %13 = load ptr, ptr %5, align 8, !tbaa !14
  %14 = getelementptr inbounds nuw i8, ptr %13, i64 32
  %15 = load ptr, ptr %14, align 8
  invoke void %15(ptr dead_on_unwind writable sret(%"class.arrow::Status") align 8 %0, ptr noundef nonnull align 8 dereferenceable(128) %5, ptr noundef nonnull %4)
          to label %16 unwind label %23

16:                                               ; preds = %3
  %17 = load ptr, ptr %4, align 8, !tbaa !53
  %.not.i.i.i = icmp eq ptr %17, null
  br i1 %.not.i.i.i, label %_ZNSt6vectorIN5arrow2io9ReadRangeESaIS2_EED2Ev.exit, label %18

18:                                               ; preds = %16
  %19 = load ptr, ptr %10, align 8, !tbaa !57
  %20 = ptrtoint ptr %19 to i64
  %21 = ptrtoint ptr %17 to i64
  %22 = sub i64 %20, %21
  call void @_ZdlPvm(ptr noundef nonnull %17, i64 noundef %22) #23
  br label %_ZNSt6vectorIN5arrow2io9ReadRangeESaIS2_EED2Ev.exit

_ZNSt6vectorIN5arrow2io9ReadRangeESaIS2_EED2Ev.exit: ; preds = %16, %18
  ret void

23:                                               ; preds = %3
  %24 = landingpad { ptr, i32 }
          cleanup
  %25 = load ptr, ptr %4, align 8, !tbaa !53
  %.not.i.i.i2 = icmp eq ptr %25, null
  br i1 %.not.i.i.i2, label %_ZNSt6vectorIN5arrow2io9ReadRangeESaIS2_EED2Ev.exit3, label %26

26:                                               ; preds = %23
  %27 = load ptr, ptr %10, align 8, !tbaa !57
  %28 = ptrtoint ptr %27 to i64
  %29 = ptrtoint ptr %25 to i64
  %30 = sub i64 %28, %29
  call void @_ZdlPvm(ptr noundef nonnull %25, i64 noundef %30) #23
  br label %_ZNSt6vectorIN5arrow2io9ReadRangeESaIS2_EED2Ev.exit3

_ZNSt6vectorIN5arrow2io9ReadRangeESaIS2_EED2Ev.exit3: ; preds = %23, %26
  resume { ptr, i32 } %24
}